target datalayout = "e-m:e-p270:32:32-p271:32:32-p272:64:64-i64:64-i128:128-f80:128-n8:16:32:64-S128"
target triple = "x86_64-pc-linux-gnu"

@proto_tplink_smarthome = internal global i32 0, align 4

; Function Attrs: null_pointer_is_valid sspstrong uwtable
define internal zeroext i1 @test_tplink_smarthome(ptr noundef %0, ptr noundef %1, i32 noundef %2, ptr noundef %3) #0 {
  %5 = alloca i1, align 1
  %6 = alloca ptr, align 8
  %7 = alloca ptr, align 8
  %8 = alloca i32, align 4
  %9 = alloca ptr, align 8
  %10 = alloca i8, align 1
  %11 = alloca i8, align 1
  %12 = alloca i8, align 1
  %13 = alloca i32, align 4
  store ptr %0, ptr %6, align 8
  store ptr %1, ptr %7, align 8
  store i32 %2, ptr %8, align 4
  store ptr %3, ptr %9, align 8
  call void @llvm.lifetime.start.p0(i64 1, ptr %10) #4
  store i8 -85, ptr %10, align 1
  call void @llvm.lifetime.start.p0(i64 1, ptr %11) #4
  call void @llvm.lifetime.start.p0(i64 1, ptr %12) #4
  %14 = load ptr, ptr %7, align 8
  %15 = load i32, ptr %8, align 4
  %16 = call i32 @tvb_captured_length_remaining(ptr noundef %14, i32 noundef %15)
  %17 = icmp slt i32 %16, 2
  br i1 %17, label %18, label %19

18:                                               ; preds = %4
  store i1 false, ptr %5, align 1
  store i32 1, ptr %13, align 4
  br label %52

19:                                               ; preds = %4
  %20 = load ptr, ptr %7, align 8
  %21 = load i32, ptr %8, align 4
  %22 = call zeroext i8 @tvb_get_uint8(ptr noundef %20, i32 noundef %21)
  store i8 %22, ptr %11, align 1
  %23 = load i8, ptr %11, align 1
  %24 = zext i8 %23 to i32
  %25 = load i8, ptr %10, align 1
  %26 = zext i8 %25 to i32
  %27 = xor i32 %24, %26
  %28 = trunc i32 %27 to i8
  store i8 %28, ptr %12, align 1
  %29 = load i8, ptr %12, align 1
  %30 = zext i8 %29 to i32
  %31 = icmp ne i32 %30, 123
  br i1 %31, label %32, label %33

32:                                               ; preds = %19
  store i1 false, ptr %5, align 1
  store i32 1, ptr %13, align 4
  br label %52

33:                                               ; preds = %19
  %34 = load i8, ptr %11, align 1
  %35 = zext i8 %34 to i32
  %36 = load ptr, ptr %7, align 8
  %37 = load i32, ptr %8, align 4
  %38 = add i32 %37, 1
  %39 = call zeroext i8 @tvb_get_uint8(ptr noundef %36, i32 noundef %38)
  %40 = zext i8 %39 to i32
  %41 = xor i32 %35, %40
  %42 = trunc i32 %41 to i8
  store i8 %42, ptr %12, align 1
  %43 = load i8, ptr %12, align 1
  %44 = zext i8 %43 to i32
  %45 = icmp ne i32 %44, 34
  br i1 %45, label %46, label %51

46:                                               ; preds = %33
  %47 = load i8, ptr %12, align 1
  %48 = zext i8 %47 to i32
  %49 = icmp ne i32 %48, 125
  br i1 %49, label %50, label %51

50:                                               ; preds = %46
  store i1 false, ptr %5, align 1
  store i32 1, ptr %13, align 4
  br label %52

51:                                               ; preds = %46, %33
  store i1 true, ptr %5, align 1
  store i32 1, ptr %13, align 4
  br label %52

52:                                               ; preds = %51, %50, %32, %18
  call void @llvm.lifetime.end.p0(i64 1, ptr %12) #4
  call void @llvm.lifetime.end.p0(i64 1, ptr %11) #4
  call void @llvm.lifetime.end.p0(i64 1, ptr %10) #4
  %53 = load i1, ptr %5, align 1
  ret i1 %53
}

; Function Attrs: null_pointer_is_valid sspstrong uwtable
define internal i32 @dissect_tplink_smarthome(ptr noundef %0, ptr noundef %1, ptr noundef %2, ptr noundef %3) #0 {
  %5 = alloca i32, align 4
  %6 = alloca ptr, align 8
  %7 = alloca ptr, align 8
  %8 = alloca ptr, align 8
  %9 = alloca ptr, align 8
  %10 = alloca ptr, align 8
  %11 = alloca i32, align 4
  store ptr %0, ptr %6, align 8
  store ptr %1, ptr %7, align 8
  store ptr %2, ptr %8, align 8
  store ptr %3, ptr %9, align 8
  call void @llvm.lifetime.start.p0(i64 8, ptr %10) #4
  %12 = load ptr, ptr %7, align 8
  %13 = call ptr @find_or_create_conversation(ptr noundef %12)
  store ptr %13, ptr %10, align 8
  %14 = load ptr, ptr %10, align 8
  %15 = load i32, ptr @proto_tplink_smarthome, align 4
  %16 = call ptr @conversation_get_proto_data(ptr noundef %14, i32 noundef %15)
  %17 = icmp ne ptr %16, null
  br i1 %17, label %27, label %18

18:                                               ; preds = %4
  %19 = load ptr, ptr %7, align 8
  %20 = load ptr, ptr %6, align 8
  %21 = load ptr, ptr %9, align 8
  %22 = call zeroext i1 @test_tplink_smarthome(ptr noundef %19, ptr noundef %20, i32 noundef 4, ptr noundef %21)
  br i1 %22, label %24, label %23

23:                                               ; preds = %18
  store i32 0, ptr %5, align 4
  store i32 1, ptr %11, align 4
  br label %34

24:                                               ; preds = %18
  %25 = load ptr, ptr %10, align 8
  %26 = load i32, ptr @proto_tplink_smarthome, align 4
  call void @conversation_add_proto_data(ptr noundef %25, i32 noundef %26, ptr noundef inttoptr (i64 1 to ptr))
  br label %27

27:                                               ; preds = %24, %4
  %28 = load ptr, ptr %6, align 8
  %29 = load ptr, ptr %7, align 8
  %30 = load ptr, ptr %8, align 8
  %31 = load ptr, ptr %9, align 8
  call void @tcp_dissect_pdus(ptr noundef %28, ptr noundef %29, ptr noundef %30, i1 noundef zeroext true, i32 noundef 4, ptr noundef @get_tplink_smarthome_message_len, ptr noundef @dissect_tplink_smarthome_message, ptr noundef %31)
  %32 = load ptr, ptr %6, align 8
  %33 = call i32 @tvb_captured_length(ptr noundef %32)
  store i32 %33, ptr %5, align 4
  store i32 1, ptr %11, align 4
  br label %34

34:                                               ; preds = %27, %23
  call void @llvm.lifetime.end.p0(i64 8, ptr %10) #4
  %35 = load i32, ptr %5, align 4
  ret i32 %35
}