; Function Attrs: null_pointer_is_valid sspstrong uwtable
define internal i32 @dissect_tplink_smarthome(ptr noundef %0, ptr noundef %1, ptr noundef %2, ptr noundef %3) #0 {
  %5 = tail call ptr @find_or_create_conversation(ptr noundef %1)
  %6 = load i32, ptr @proto_tplink_smarthome, align 4
  %7 = tail call ptr @conversation_get_proto_data(ptr noundef %5, i32 noundef %6)
  %.not = icmp eq ptr %7, null
  br i1 %.not, label %8, label %16

8:                                                ; preds = %4
  %9 = tail call i32 @tvb_captured_length_remaining(ptr noundef %0, i32 noundef 4)
  %10 = icmp slt i32 %9, 2
  br i1 %10, label %test_tplink_smarthome.exit.thread, label %11

11:                                               ; preds = %8
  %12 = tail call zeroext i8 @tvb_get_uint8(ptr noundef %0, i32 noundef 4)
  %.not.i = icmp eq i8 %12, -48
  br i1 %.not.i, label %test_tplink_smarthome.exit, label %test_tplink_smarthome.exit.thread

test_tplink_smarthome.exit:                       ; preds = %11
  %13 = tail call zeroext i8 @tvb_get_uint8(ptr noundef %0, i32 noundef 5)
  switch i8 %13, label %test_tplink_smarthome.exit.thread [
    i8 -14, label %14
    i8 -83, label %14
  ]

14:                                               ; preds = %test_tplink_smarthome.exit, %test_tplink_smarthome.exit
  %15 = load i32, ptr @proto_tplink_smarthome, align 4
  tail call void @conversation_add_proto_data(ptr noundef %5, i32 noundef %15, ptr noundef nonnull inttoptr (i64 1 to ptr))
  br label %16

16:                                               ; preds = %14, %4
  tail call void @tcp_dissect_pdus(ptr noundef %0, ptr noundef %1, ptr noundef %2, i1 noundef zeroext true, i32 noundef 4, ptr noundef nonnull @get_tplink_smarthome_message_len, ptr noundef nonnull @dissect_tplink_smarthome_message, ptr noundef %3)
  %17 = tail call i32 @tvb_captured_length(ptr noundef %0)
  br label %test_tplink_smarthome.exit.thread

test_tplink_smarthome.exit.thread:                ; preds = %test_tplink_smarthome.exit, %11, %8, %16
  %.0 = phi i32 [ %17, %16 ], [ 0, %test_tplink_smarthome.exit ], [ 0, %8 ], [ 0, %11 ]
  ret i32 %.0
}